; Function Attrs: nounwind uwtable
define dso_local range(i32 0, 44) i32 @Curl_connect_only_attach(ptr noundef %0) local_unnamed_addr #5 {
  %2 = alloca ptr, align 8
  call void @llvm.lifetime.start.p0(i64 8, ptr nonnull %2) #12
  store ptr null, ptr %2, align 8, !tbaa !131
  %.not.i = icmp eq ptr %0, null
  br i1 %.not.i, label %easy_connection.exit.thread, label %3

3:                                                ; preds = %1
  %4 = getelementptr inbounds nuw i8, ptr %0, i64 2561
  %5 = load i8, ptr %4, align 1, !tbaa !130
  %.not8.i = icmp eq i8 %5, 0
  br i1 %.not8.i, label %.sink.split.i, label %6

6:                                                ; preds = %3
  %7 = call i32 @Curl_getconnectinfo(ptr noundef nonnull %0, ptr noundef nonnull %2) #12
  %8 = icmp eq i32 %7, -1
  br i1 %8, label %.sink.split.i, label %easy_connection.exit

.sink.split.i:                                    ; preds = %6, %3
  %.str.2.sink.i = phi ptr [ @.str.1, %3 ], [ @.str.2, %6 ]
  call void (ptr, ptr, ...) @Curl_failf(ptr noundef nonnull %0, ptr noundef nonnull %.str.2.sink.i) #12
  br label %easy_connection.exit.thread

easy_connection.exit:                             ; preds = %6
  %9 = getelementptr inbounds nuw i8, ptr %0, i64 24
  %10 = load ptr, ptr %9, align 8, !tbaa !125
  %.not6 = icmp eq ptr %10, null
  br i1 %.not6, label %11, label %easy_connection.exit.thread

11:                                               ; preds = %easy_connection.exit
  %12 = load ptr, ptr %2, align 8, !tbaa !131
  call void @Curl_attach_connection(ptr noundef nonnull %0, ptr noundef %12) #12
  br label %easy_connection.exit.thread

easy_connection.exit.thread:                      ; preds = %.sink.split.i, %1, %easy_connection.exit, %11
  %.0 = phi i32 [ 0, %11 ], [ 0, %easy_connection.exit ], [ 1, %.sink.split.i ], [ 43, %1 ]
  call void @llvm.lifetime.end.p0(i64 8, ptr nonnull %2) #12
  ret i32 %.0
}